target datalayout = "e-m:e-p270:32:32-p271:32:32-p272:64:64-i64:64-i128:128-f80:128-n8:16:32:64-S128"
target triple = "x86_64-unknown-linux-gnu"

%"class.facebook::jsi::Runtime" = type { ptr }
%"class.facebook::jsi::Instrumentation" = type { ptr }
%"class.std::_Function_base" = type { %"union.std::_Any_data", ptr }
%"union.std::_Any_data" = type { %"union.std::_Nocopy_types" }
%"union.std::_Nocopy_types" = type { { i64, i64 } }
%"class.std::recursive_mutex" = type { %"class.std::__recursive_mutex_base" }
%"class.std::__recursive_mutex_base" = type { %union.pthread_mutex_t }
%union.pthread_mutex_t = type { %struct.__pthread_mutex_s }
%struct.__pthread_mutex_s = type { i32, i32, i32, i32, i32, i16, i16, %struct.__pthread_internal_list }
%struct.__pthread_internal_list = type { ptr, ptr }
%"class.facebook::jsi::Object" = type { %"class.facebook::jsi::Pointer" }
%"class.facebook::jsi::Pointer" = type { ptr }
%"class.facebook::jsi::Function" = type { %"class.facebook::jsi::Object" }
%"class.std::function.393" = type { %"class.std::_Function_base", ptr }
%"class.facebook::jsi::WithRuntimeDecorator" = type { %"class.facebook::jsi::RuntimeDecorator", ptr }
%"class.facebook::jsi::RuntimeDecorator" = type { %"class.facebook::jsi::ThreadSafeRuntime", %"class.facebook::jsi::Instrumentation", ptr }
%"class.facebook::jsi::ThreadSafeRuntime" = type { %"class.facebook::jsi::Runtime" }
%"struct.facebook::jsi::detail::WithLock" = type { %"class.facebook::hermes::(anonymous namespace)::HermesMutex" }
%"class.facebook::hermes::(anonymous namespace)::HermesMutex" = type { %"class.std::recursive_mutex" }
%"struct.facebook::jsi::WithRuntimeDecorator<facebook::jsi::detail::WithLock<facebook::hermes::HermesRuntimeImpl, facebook::hermes::(anonymous namespace)::HermesMutex>, facebook::hermes::HermesRuntimeImpl, facebook::jsi::ThreadSafeRuntime>::Around" = type { ptr }

; Function Attrs: mustprogress nounwind uwtable
define internal noundef i32 @_ZL18__gthread_active_pv() #1 {
entry:
  ret i32 1
}

; Function Attrs: mustprogress nounwind uwtable
define internal noundef i32 @_ZL22__gthread_mutex_unlockP15pthread_mutex_t(ptr noundef %__mutex) #1 {
entry:
  %retval = alloca i32, align 4
  %__mutex.addr = alloca ptr, align 8
  store ptr %__mutex, ptr %__mutex.addr, align 8
  %call = call noundef i32 @_ZL18__gthread_active_pv()
  %tobool = icmp ne i32 %call, 0
  br i1 %tobool, label %if.then, label %if.else

if.then:                                          ; preds = %entry
  %0 = load ptr, ptr %__mutex.addr, align 8
  %call1 = call i32 @pthread_mutex_unlock(ptr noundef %0) #19
  store i32 %call1, ptr %retval, align 4
  br label %return

if.else:                                          ; preds = %entry
  store i32 0, ptr %retval, align 4
  br label %return

return:                                           ; preds = %if.else, %if.then
  %1 = load i32, ptr %retval, align 4
  ret i32 %1
}

; Function Attrs: mustprogress uwtable
define internal noundef i32 @_ZL20__gthread_mutex_lockP15pthread_mutex_t(ptr noundef %__mutex) #0 {
entry:
  %retval = alloca i32, align 4
  %__mutex.addr = alloca ptr, align 8
  store ptr %__mutex, ptr %__mutex.addr, align 8
  %call = call noundef i32 @_ZL18__gthread_active_pv()
  %tobool = icmp ne i32 %call, 0
  br i1 %tobool, label %if.then, label %if.else

if.then:                                          ; preds = %entry
  %0 = load ptr, ptr %__mutex.addr, align 8
  %call1 = call i32 @pthread_mutex_lock(ptr noundef %0) #19
  store i32 %call1, ptr %retval, align 4
  br label %return

if.else:                                          ; preds = %entry
  store i32 0, ptr %retval, align 4
  br label %return

return:                                           ; preds = %if.else, %if.then
  %1 = load i32, ptr %retval, align 4
  ret i32 %1
}

; Function Attrs: mustprogress uwtable
define internal noundef i32 @_ZL32__gthread_recursive_mutex_unlockP15pthread_mutex_t(ptr noundef %__mutex) #0 {
entry:
  %__mutex.addr = alloca ptr, align 8
  store ptr %__mutex, ptr %__mutex.addr, align 8
  %0 = load ptr, ptr %__mutex.addr, align 8
  %call = call noundef i32 @_ZL22__gthread_mutex_unlockP15pthread_mutex_t(ptr noundef %0)
  ret i32 %call
}

; Function Attrs: mustprogress uwtable
define internal noundef i32 @_ZL30__gthread_recursive_mutex_lockP15pthread_mutex_t(ptr noundef %__mutex) #0 {
entry:
  %__mutex.addr = alloca ptr, align 8
  store ptr %__mutex, ptr %__mutex.addr, align 8
  %0 = load ptr, ptr %__mutex.addr, align 8
  %call = call noundef i32 @_ZL20__gthread_mutex_lockP15pthread_mutex_t(ptr noundef %0)
  ret i32 %call
}

; Function Attrs: mustprogress uwtable
define linkonce_odr void @_ZNSt15recursive_mutex6unlockEv(ptr noundef nonnull align 8 dereferenceable(40) %this) #0 comdat align 2 {
entry:
  %this.addr = alloca ptr, align 8
  store ptr %this, ptr %this.addr, align 8
  %this1 = load ptr, ptr %this.addr, align 8
  %_M_mutex = getelementptr inbounds %"class.std::__recursive_mutex_base", ptr %this1, i32 0, i32 0
  %call = call noundef i32 @_ZL32__gthread_recursive_mutex_unlockP15pthread_mutex_t(ptr noundef %_M_mutex)
  ret void
}

; Function Attrs: mustprogress uwtable
define linkonce_odr void @_ZNSt15recursive_mutex4lockEv(ptr noundef nonnull align 8 dereferenceable(40) %this) #0 comdat align 2 {
entry:
  %this.addr = alloca ptr, align 8
  %__e = alloca i32, align 4
  store ptr %this, ptr %this.addr, align 8
  %this1 = load ptr, ptr %this.addr, align 8
  %_M_mutex = getelementptr inbounds %"class.std::__recursive_mutex_base", ptr %this1, i32 0, i32 0
  %call = call noundef i32 @_ZL30__gthread_recursive_mutex_lockP15pthread_mutex_t(ptr noundef %_M_mutex)
  store i32 %call, ptr %__e, align 4
  %0 = load i32, ptr %__e, align 4
  %tobool = icmp ne i32 %0, 0
  br i1 %tobool, label %if.then, label %if.end

if.then:                                          ; preds = %entry
  %1 = load i32, ptr %__e, align 4
  call void @_ZSt20__throw_system_errori(i32 noundef %1) #21
  unreachable

if.end:                                           ; preds = %entry
  ret void
}

; Function Attrs: mustprogress uwtable
define internal void @_ZN8facebook3jsi6detail8WithLockINS_6hermes17HermesRuntimeImplENS3_12_GLOBAL__N_111HermesMutexEE5afterEv(ptr noundef nonnull align 8 dereferenceable(40) %this) #0 align 2 {
entry:
  %this.addr = alloca ptr, align 8
  store ptr %this, ptr %this.addr, align 8
  %this1 = load ptr, ptr %this.addr, align 8
  %lock = getelementptr inbounds %"struct.facebook::jsi::detail::WithLock", ptr %this1, i32 0, i32 0
  call void @_ZNSt15recursive_mutex6unlockEv(ptr noundef nonnull align 8 dereferenceable(40) %lock)
  ret void
}

; Function Attrs: mustprogress nounwind uwtable
define linkonce_odr noundef zeroext i1 @_ZNKSt14_Function_base8_M_emptyEv(ptr noundef nonnull align 8 dereferenceable(24) %this) #1 comdat align 2 {
entry:
  %this.addr = alloca ptr, align 8
  store ptr %this, ptr %this.addr, align 8
  %this1 = load ptr, ptr %this.addr, align 8
  %_M_manager = getelementptr inbounds %"class.std::_Function_base", ptr %this1, i32 0, i32 1
  %0 = load ptr, ptr %_M_manager, align 8
  %tobool = icmp ne ptr %0, null
  %lnot = xor i1 %tobool, true
  ret i1 %lnot
}

; Function Attrs: mustprogress uwtable
define internal void @_ZN8facebook3jsi6detail8WithLockINS_6hermes17HermesRuntimeImplENS3_12_GLOBAL__N_111HermesMutexEE6beforeEv(ptr noundef nonnull align 8 dereferenceable(40) %this) #0 align 2 {
entry:
  %this.addr = alloca ptr, align 8
  store ptr %this, ptr %this.addr, align 8
  %this1 = load ptr, ptr %this.addr, align 8
  %lock = getelementptr inbounds %"struct.facebook::jsi::detail::WithLock", ptr %this1, i32 0, i32 0
  call void @_ZNSt15recursive_mutex4lockEv(ptr noundef nonnull align 8 dereferenceable(40) %lock)
  ret void
}

; Function Attrs: mustprogress uwtable
define internal void @_ZN8facebook3jsi6detail11AfterCallerINS1_8WithLockINS_6hermes17HermesRuntimeImplENS4_12_GLOBAL__N_111HermesMutexEEEvE5afterERS8_(ptr noundef nonnull align 8 dereferenceable(40) %t) #0 align 2 {
entry:
  %t.addr = alloca ptr, align 8
  store ptr %t, ptr %t.addr, align 8
  %0 = load ptr, ptr %t.addr, align 8
  call void @_ZN8facebook3jsi6detail8WithLockINS_6hermes17HermesRuntimeImplENS3_12_GLOBAL__N_111HermesMutexEE5afterEv(ptr noundef nonnull align 8 dereferenceable(40) %0)
  ret void
}

; Function Attrs: mustprogress nounwind uwtable
define linkonce_odr void @_ZNSt14_Function_baseD2Ev(ptr noundef nonnull align 8 dereferenceable(24) %this) unnamed_addr #1 comdat align 2 personality ptr @__gxx_personality_v0 {
entry:
  %this.addr = alloca ptr, align 8
  store ptr %this, ptr %this.addr, align 8
  %this1 = load ptr, ptr %this.addr, align 8
  %_M_manager = getelementptr inbounds %"class.std::_Function_base", ptr %this1, i32 0, i32 1
  %0 = load ptr, ptr %_M_manager, align 8
  %tobool = icmp ne ptr %0, null
  br i1 %tobool, label %if.then, label %if.end

if.then:                                          ; preds = %entry
  %_M_manager2 = getelementptr inbounds %"class.std::_Function_base", ptr %this1, i32 0, i32 1
  %1 = load ptr, ptr %_M_manager2, align 8
  %_M_functor = getelementptr inbounds %"class.std::_Function_base", ptr %this1, i32 0, i32 0
  %_M_functor3 = getelementptr inbounds %"class.std::_Function_base", ptr %this1, i32 0, i32 0
  %call = invoke noundef zeroext i1 %1(ptr noundef nonnull align 8 dereferenceable(16) %_M_functor, ptr noundef nonnull align 8 dereferenceable(16) %_M_functor3, i32 noundef 3)
          to label %invoke.cont unwind label %terminate.lpad

invoke.cont:                                      ; preds = %if.then
  br label %if.end

if.end:                                           ; preds = %invoke.cont, %entry
  ret void

terminate.lpad:                                   ; preds = %if.then
  %2 = landingpad { ptr, i32 }
          catch ptr null
  %3 = extractvalue { ptr, i32 } %2, 0
  call void @__clang_call_terminate(ptr %3) #23
  unreachable
}

; Function Attrs: mustprogress nounwind uwtable
define linkonce_odr noundef zeroext i1 @_ZNKSt8functionIFN8facebook3jsi5ValueERNS1_7RuntimeERKS2_PS5_mEEcvbEv(ptr noundef nonnull align 8 dereferenceable(32) %this) #1 comdat align 2 {
entry:
  %this.addr = alloca ptr, align 8
  store ptr %this, ptr %this.addr, align 8
  %this1 = load ptr, ptr %this.addr, align 8
  %call = call noundef zeroext i1 @_ZNKSt14_Function_base8_M_emptyEv(ptr noundef nonnull align 8 dereferenceable(24) %this1)
  %lnot = xor i1 %call, true
  ret i1 %lnot
}

; Function Attrs: mustprogress nounwind uwtable
define linkonce_odr void @_ZNSt14_Function_baseC2Ev(ptr noundef nonnull align 8 dereferenceable(24) %this) unnamed_addr #1 comdat align 2 {
entry:
  %this.addr = alloca ptr, align 8
  store ptr %this, ptr %this.addr, align 8
  %this1 = load ptr, ptr %this.addr, align 8
  %_M_functor = getelementptr inbounds %"class.std::_Function_base", ptr %this1, i32 0, i32 0
  store ptr null, ptr %_M_functor, align 8
  %_M_manager = getelementptr inbounds %"class.std::_Function_base", ptr %this1, i32 0, i32 1
  store ptr null, ptr %_M_manager, align 8
  ret void
}

; Function Attrs: mustprogress uwtable
define internal void @_ZN8facebook3jsi6detail12BeforeCallerINS1_8WithLockINS_6hermes17HermesRuntimeImplENS4_12_GLOBAL__N_111HermesMutexEEEvE6beforeERS8_(ptr noundef nonnull align 8 dereferenceable(40) %t) #0 align 2 {
entry:
  %t.addr = alloca ptr, align 8
  store ptr %t, ptr %t.addr, align 8
  %0 = load ptr, ptr %t.addr, align 8
  call void @_ZN8facebook3jsi6detail8WithLockINS_6hermes17HermesRuntimeImplENS3_12_GLOBAL__N_111HermesMutexEE6beforeEv(ptr noundef nonnull align 8 dereferenceable(40) %0)
  ret void
}

; Function Attrs: mustprogress nounwind uwtable
define internal void @_ZN8facebook3jsi20WithRuntimeDecoratorINS0_6detail8WithLockINS_6hermes17HermesRuntimeImplENS4_12_GLOBAL__N_111HermesMutexEEES5_NS0_17ThreadSafeRuntimeEE6AroundD2Ev(ptr noundef nonnull align 8 dereferenceable(8) %this) unnamed_addr #1 align 2 personality ptr @__gxx_personality_v0 {
entry:
  %this.addr = alloca ptr, align 8
  store ptr %this, ptr %this.addr, align 8
  %this1 = load ptr, ptr %this.addr, align 8
  %with_ = getelementptr inbounds %"struct.facebook::jsi::WithRuntimeDecorator<facebook::jsi::detail::WithLock<facebook::hermes::HermesRuntimeImpl, facebook::hermes::(anonymous namespace)::HermesMutex>, facebook::hermes::HermesRuntimeImpl, facebook::jsi::ThreadSafeRuntime>::Around", ptr %this1, i32 0, i32 0
  %0 = load ptr, ptr %with_, align 8
  invoke void @_ZN8facebook3jsi6detail11AfterCallerINS1_8WithLockINS_6hermes17HermesRuntimeImplENS4_12_GLOBAL__N_111HermesMutexEEEvE5afterERS8_(ptr noundef nonnull align 8 dereferenceable(40) %0)
          to label %invoke.cont unwind label %terminate.lpad

invoke.cont:                                      ; preds = %entry
  ret void

terminate.lpad:                                   ; preds = %entry
  %1 = landingpad { ptr, i32 }
          catch ptr null
  %2 = extractvalue { ptr, i32 } %1, 0
  call void @__clang_call_terminate(ptr %2) #23
  unreachable
}

; Function Attrs: mustprogress nounwind uwtable
define linkonce_odr void @_ZNSt8functionIFN8facebook3jsi5ValueERNS1_7RuntimeERKS2_PS5_mEED2Ev(ptr noundef nonnull align 8 dereferenceable(32) %this) unnamed_addr #1 comdat align 2 {
entry:
  %this.addr = alloca ptr, align 8
  store ptr %this, ptr %this.addr, align 8
  %this1 = load ptr, ptr %this.addr, align 8
  call void @_ZNSt14_Function_baseD2Ev(ptr noundef nonnull align 8 dereferenceable(24) %this1) #19
  ret void
}

; Function Attrs: mustprogress nounwind uwtable
define linkonce_odr void @_ZNSt8functionIFN8facebook3jsi5ValueERNS1_7RuntimeERKS2_PS5_mEEC2EOS9_(ptr noundef nonnull align 8 dereferenceable(32) %this, ptr noundef nonnull align 8 dereferenceable(32) %__x) unnamed_addr #1 comdat align 2 {
entry:
  %this.addr = alloca ptr, align 8
  %__x.addr = alloca ptr, align 8
  store ptr %this, ptr %this.addr, align 8
  store ptr %__x, ptr %__x.addr, align 8
  %this1 = load ptr, ptr %this.addr, align 8
  %0 = getelementptr inbounds i8, ptr %this1, i64 0
  call void @llvm.memset.p0.i64(ptr align 8 %0, i8 0, i64 24, i1 false)
  call void @_ZNSt14_Function_baseC2Ev(ptr noundef nonnull align 8 dereferenceable(24) %this1) #19
  %_M_invoker = getelementptr inbounds %"class.std::function.393", ptr %this1, i32 0, i32 1
  %1 = load ptr, ptr %__x.addr, align 8
  %_M_invoker2 = getelementptr inbounds %"class.std::function.393", ptr %1, i32 0, i32 1
  %2 = load ptr, ptr %_M_invoker2, align 8
  store ptr %2, ptr %_M_invoker, align 8
  %3 = load ptr, ptr %__x.addr, align 8
  %call = call noundef zeroext i1 @_ZNKSt8functionIFN8facebook3jsi5ValueERNS1_7RuntimeERKS2_PS5_mEEcvbEv(ptr noundef nonnull align 8 dereferenceable(32) %3) #19
  br i1 %call, label %if.then, label %if.end

if.then:                                          ; preds = %entry
  %4 = load ptr, ptr %__x.addr, align 8
  %_M_functor = getelementptr inbounds %"class.std::_Function_base", ptr %4, i32 0, i32 0
  %_M_functor3 = getelementptr inbounds %"class.std::_Function_base", ptr %this1, i32 0, i32 0
  call void @llvm.memcpy.p0.p0.i64(ptr align 8 %_M_functor3, ptr align 8 %_M_functor, i64 16, i1 false)
  %5 = load ptr, ptr %__x.addr, align 8
  %_M_manager = getelementptr inbounds %"class.std::_Function_base", ptr %5, i32 0, i32 1
  %6 = load ptr, ptr %_M_manager, align 8
  %_M_manager4 = getelementptr inbounds %"class.std::_Function_base", ptr %this1, i32 0, i32 1
  store ptr %6, ptr %_M_manager4, align 8
  %7 = load ptr, ptr %__x.addr, align 8
  %_M_manager5 = getelementptr inbounds %"class.std::_Function_base", ptr %7, i32 0, i32 1
  store ptr null, ptr %_M_manager5, align 8
  %8 = load ptr, ptr %__x.addr, align 8
  %_M_invoker6 = getelementptr inbounds %"class.std::function.393", ptr %8, i32 0, i32 1
  store ptr null, ptr %_M_invoker6, align 8
  br label %if.end

if.end:                                           ; preds = %if.then, %entry
  ret void
}

; Function Attrs: mustprogress uwtable
define internal void @_ZN8facebook3jsi20WithRuntimeDecoratorINS0_6detail8WithLockINS_6hermes17HermesRuntimeImplENS4_12_GLOBAL__N_111HermesMutexEEES5_NS0_17ThreadSafeRuntimeEE6AroundC2ERS8_(ptr noundef nonnull align 8 dereferenceable(8) %this, ptr noundef nonnull align 8 dereferenceable(40) %with) unnamed_addr #0 align 2 {
entry:
  %this.addr = alloca ptr, align 8
  %with.addr = alloca ptr, align 8
  store ptr %this, ptr %this.addr, align 8
  store ptr %with, ptr %with.addr, align 8
  %this1 = load ptr, ptr %this.addr, align 8
  %with_ = getelementptr inbounds %"struct.facebook::jsi::WithRuntimeDecorator<facebook::jsi::detail::WithLock<facebook::hermes::HermesRuntimeImpl, facebook::hermes::(anonymous namespace)::HermesMutex>, facebook::hermes::HermesRuntimeImpl, facebook::jsi::ThreadSafeRuntime>::Around", ptr %this1, i32 0, i32 0
  %0 = load ptr, ptr %with.addr, align 8
  store ptr %0, ptr %with_, align 8
  %with_2 = getelementptr inbounds %"struct.facebook::jsi::WithRuntimeDecorator<facebook::jsi::detail::WithLock<facebook::hermes::HermesRuntimeImpl, facebook::hermes::(anonymous namespace)::HermesMutex>, facebook::hermes::HermesRuntimeImpl, facebook::jsi::ThreadSafeRuntime>::Around", ptr %this1, i32 0, i32 0
  %1 = load ptr, ptr %with_2, align 8
  call void @_ZN8facebook3jsi6detail12BeforeCallerINS1_8WithLockINS_6hermes17HermesRuntimeImplENS4_12_GLOBAL__N_111HermesMutexEEEvE6beforeERS8_(ptr noundef nonnull align 8 dereferenceable(40) %1)
  ret void
}

; Function Attrs: mustprogress uwtable
define internal void @_ZN8facebook3jsi20WithRuntimeDecoratorINS0_6detail8WithLockINS_6hermes17HermesRuntimeImplENS4_12_GLOBAL__N_111HermesMutexEEES5_NS0_17ThreadSafeRuntimeEE30createFunctionFromHostFunctionERKNS0_10PropNameIDEjSt8functionIFNS0_5ValueERNS0_7RuntimeERKSF_PSI_mEE(ptr noalias sret(%"class.facebook::jsi::Function") align 8 %agg.result, ptr noundef nonnull align 8 dereferenceable(32) %this, ptr noundef nonnull align 8 dereferenceable(8) %name, i32 noundef %paramCount, ptr noundef %func) unnamed_addr #0 align 2 personality ptr @__gxx_personality_v0 {
entry:
  %result.ptr = alloca ptr, align 8
  %this.addr = alloca ptr, align 8
  %name.addr = alloca ptr, align 8
  %paramCount.addr = alloca i32, align 4
  %func.indirect_addr = alloca ptr, align 8
  %around = alloca %"struct.facebook::jsi::WithRuntimeDecorator<facebook::jsi::detail::WithLock<facebook::hermes::HermesRuntimeImpl, facebook::hermes::(anonymous namespace)::HermesMutex>, facebook::hermes::HermesRuntimeImpl, facebook::jsi::ThreadSafeRuntime>::Around", align 8
  %agg.tmp = alloca %"class.std::function.393", align 8
  %exn.slot = alloca ptr, align 8
  %ehselector.slot = alloca i32, align 4
  store ptr %agg.result, ptr %result.ptr, align 8
  store ptr %this, ptr %this.addr, align 8
  store ptr %name, ptr %name.addr, align 8
  store i32 %paramCount, ptr %paramCount.addr, align 4
  store ptr %func, ptr %func.indirect_addr, align 8
  %this1 = load ptr, ptr %this.addr, align 8
  %with_ = getelementptr inbounds %"class.facebook::jsi::WithRuntimeDecorator", ptr %this1, i32 0, i32 1
  %0 = load ptr, ptr %with_, align 8
  call void @_ZN8facebook3jsi20WithRuntimeDecoratorINS0_6detail8WithLockINS_6hermes17HermesRuntimeImplENS4_12_GLOBAL__N_111HermesMutexEEES5_NS0_17ThreadSafeRuntimeEE6AroundC2ERS8_(ptr noundef nonnull align 8 dereferenceable(8) %around, ptr noundef nonnull align 8 dereferenceable(40) %0)
  %1 = load ptr, ptr %name.addr, align 8
  %2 = load i32, ptr %paramCount.addr, align 4
  call void @_ZNSt8functionIFN8facebook3jsi5ValueERNS1_7RuntimeERKS2_PS5_mEEC2EOS9_(ptr noundef nonnull align 8 dereferenceable(32) %agg.tmp, ptr noundef nonnull align 8 dereferenceable(32) %func) #19
  invoke void @_ZN8facebook3jsi16RuntimeDecoratorINS_6hermes17HermesRuntimeImplENS0_17ThreadSafeRuntimeEE30createFunctionFromHostFunctionERKNS0_10PropNameIDEjSt8functionIFNS0_5ValueERNS0_7RuntimeERKSA_PSD_mEE(ptr sret(%"class.facebook::jsi::Function") align 8 %agg.result, ptr noundef nonnull align 8 dereferenceable(24) %this1, ptr noundef nonnull align 8 dereferenceable(8) %1, i32 noundef %2, ptr noundef %agg.tmp)
          to label %invoke.cont unwind label %lpad

invoke.cont:                                      ; preds = %entry
  call void @_ZNSt8functionIFN8facebook3jsi5ValueERNS1_7RuntimeERKS2_PS5_mEED2Ev(ptr noundef nonnull align 8 dereferenceable(32) %agg.tmp) #19
  call void @_ZN8facebook3jsi20WithRuntimeDecoratorINS0_6detail8WithLockINS_6hermes17HermesRuntimeImplENS4_12_GLOBAL__N_111HermesMutexEEES5_NS0_17ThreadSafeRuntimeEE6AroundD2Ev(ptr noundef nonnull align 8 dereferenceable(8) %around) #19
  ret void

lpad:                                             ; preds = %entry
  %3 = landingpad { ptr, i32 }
          cleanup
  %4 = extractvalue { ptr, i32 } %3, 0
  store ptr %4, ptr %exn.slot, align 8
  %5 = extractvalue { ptr, i32 } %3, 1
  store i32 %5, ptr %ehselector.slot, align 4
  call void @_ZNSt8functionIFN8facebook3jsi5ValueERNS1_7RuntimeERKS2_PS5_mEED2Ev(ptr noundef nonnull align 8 dereferenceable(32) %agg.tmp) #19
  call void @_ZN8facebook3jsi20WithRuntimeDecoratorINS0_6detail8WithLockINS_6hermes17HermesRuntimeImplENS4_12_GLOBAL__N_111HermesMutexEEES5_NS0_17ThreadSafeRuntimeEE6AroundD2Ev(ptr noundef nonnull align 8 dereferenceable(8) %around) #19
  br label %eh.resume

eh.resume:                                        ; preds = %lpad
  %exn = load ptr, ptr %exn.slot, align 8
  %sel = load i32, ptr %ehselector.slot, align 4
  %lpad.val = insertvalue { ptr, i32 } poison, ptr %exn, 0
  %lpad.val2 = insertvalue { ptr, i32 } %lpad.val, i32 %sel, 1
  resume { ptr, i32 } %lpad.val2
}