; Function Attrs: mustprogress uwtable
define internal void @_ZN8facebook3jsi20WithRuntimeDecoratorINS0_6detail8WithLockINS_6hermes17HermesRuntimeImplENS4_12_GLOBAL__N_111HermesMutexEEES5_NS0_17ThreadSafeRuntimeEE30createFunctionFromHostFunctionERKNS0_10PropNameIDEjSt8functionIFNS0_5ValueERNS0_7RuntimeERKSF_PSI_mEE(ptr noalias sret(%"class.facebook::jsi::Function") align 8 %agg.result, ptr noundef nonnull align 8 dereferenceable(32) %this, ptr noundef nonnull align 8 dereferenceable(8) %name, i32 noundef %paramCount, ptr nocapture noundef %func) unnamed_addr #0 align 2 personality ptr @__gxx_personality_v0 {
entry:
  %agg.tmp = alloca %"class.std::function.393", align 8
  %with_ = getelementptr inbounds i8, ptr %this, i64 24
  %0 = load ptr, ptr %with_, align 8
  %call1.i.i.i.i.i.i = tail call noundef i32 @pthread_mutex_lock(ptr noundef nonnull %0) #37
  %tobool.not.i.i.i.i = icmp eq i32 %call1.i.i.i.i.i.i, 0
  br i1 %tobool.not.i.i.i.i, label %_ZN8facebook3jsi20WithRuntimeDecoratorINS0_6detail8WithLockINS_6hermes17HermesRuntimeImplENS4_12_GLOBAL__N_111HermesMutexEEES5_NS0_17ThreadSafeRuntimeEE6AroundC2ERS8_.exit, label %if.then.i.i.i.i

if.then.i.i.i.i:                                  ; preds = %entry
  tail call void @_ZSt20__throw_system_errori(i32 noundef %call1.i.i.i.i.i.i) #39
  unreachable

_ZN8facebook3jsi20WithRuntimeDecoratorINS0_6detail8WithLockINS_6hermes17HermesRuntimeImplENS4_12_GLOBAL__N_111HermesMutexEEES5_NS0_17ThreadSafeRuntimeEE6AroundC2ERS8_.exit: ; preds = %entry
  %_M_invoker.i = getelementptr inbounds i8, ptr %agg.tmp, i64 24
  %_M_invoker2.i = getelementptr inbounds i8, ptr %func, i64 24
  call void @llvm.memset.p0.i64(ptr noundef nonnull align 8 dereferenceable(24) %agg.tmp, i8 0, i64 24, i1 false)
  %1 = load ptr, ptr %_M_invoker2.i, align 8
  store ptr %1, ptr %_M_invoker.i, align 8
  %_M_manager.i.i.i = getelementptr inbounds i8, ptr %func, i64 16
  %2 = load ptr, ptr %_M_manager.i.i.i, align 8
  %tobool.not.i.i.not.i = icmp eq ptr %2, null
  br i1 %tobool.not.i.i.not.i, label %_ZNSt8functionIFN8facebook3jsi5ValueERNS1_7RuntimeERKS2_PS5_mEEC2EOS9_.exit, label %if.then.i

if.then.i:                                        ; preds = %_ZN8facebook3jsi20WithRuntimeDecoratorINS0_6detail8WithLockINS_6hermes17HermesRuntimeImplENS4_12_GLOBAL__N_111HermesMutexEEES5_NS0_17ThreadSafeRuntimeEE6AroundC2ERS8_.exit
  %_M_manager.i.i = getelementptr inbounds i8, ptr %agg.tmp, i64 16
  call void @llvm.memcpy.p0.p0.i64(ptr noundef nonnull align 8 dereferenceable(16) %agg.tmp, ptr noundef nonnull align 8 dereferenceable(16) %func, i64 16, i1 false)
  store ptr %2, ptr %_M_manager.i.i, align 8
  tail call void @llvm.memset.p0.i64(ptr noundef nonnull align 8 dereferenceable(16) %_M_manager.i.i.i, i8 0, i64 16, i1 false)
  br label %_ZNSt8functionIFN8facebook3jsi5ValueERNS1_7RuntimeERKS2_PS5_mEEC2EOS9_.exit

_ZNSt8functionIFN8facebook3jsi5ValueERNS1_7RuntimeERKS2_PS5_mEEC2EOS9_.exit: ; preds = %_ZN8facebook3jsi20WithRuntimeDecoratorINS0_6detail8WithLockINS_6hermes17HermesRuntimeImplENS4_12_GLOBAL__N_111HermesMutexEEES5_NS0_17ThreadSafeRuntimeEE6AroundC2ERS8_.exit, %if.then.i
  invoke void @_ZN8facebook3jsi16RuntimeDecoratorINS_6hermes17HermesRuntimeImplENS0_17ThreadSafeRuntimeEE30createFunctionFromHostFunctionERKNS0_10PropNameIDEjSt8functionIFNS0_5ValueERNS0_7RuntimeERKSA_PSD_mEE(ptr sret(%"class.facebook::jsi::Function") align 8 %agg.result, ptr noundef nonnull align 8 dereferenceable(24) %this, ptr noundef nonnull align 8 dereferenceable(8) %name, i32 noundef %paramCount, ptr noundef nonnull %agg.tmp)
          to label %invoke.cont unwind label %lpad

invoke.cont:                                      ; preds = %_ZNSt8functionIFN8facebook3jsi5ValueERNS1_7RuntimeERKS2_PS5_mEEC2EOS9_.exit
  %_M_manager.i.i2 = getelementptr inbounds i8, ptr %agg.tmp, i64 16
  %3 = load ptr, ptr %_M_manager.i.i2, align 8
  %tobool.not.i.i = icmp eq ptr %3, null
  br i1 %tobool.not.i.i, label %_ZNSt8functionIFN8facebook3jsi5ValueERNS1_7RuntimeERKS2_PS5_mEED2Ev.exit, label %if.then.i.i

if.then.i.i:                                      ; preds = %invoke.cont
  %call.i.i = invoke noundef zeroext i1 %3(ptr noundef nonnull align 8 dereferenceable(16) %agg.tmp, ptr noundef nonnull align 8 dereferenceable(16) %agg.tmp, i32 noundef 3)
          to label %_ZNSt8functionIFN8facebook3jsi5ValueERNS1_7RuntimeERKS2_PS5_mEED2Ev.exit unwind label %terminate.lpad.i.i

terminate.lpad.i.i:                               ; preds = %if.then.i.i
  %4 = landingpad { ptr, i32 }
          catch ptr null
  %5 = extractvalue { ptr, i32 } %4, 0
  call void @__clang_call_terminate(ptr %5) #42
  unreachable

_ZNSt8functionIFN8facebook3jsi5ValueERNS1_7RuntimeERKS2_PS5_mEED2Ev.exit: ; preds = %invoke.cont, %if.then.i.i
  %call1.i.i.i.i.i.i3 = call noundef i32 @pthread_mutex_unlock(ptr noundef nonnull %0) #37
  ret void

lpad:                                             ; preds = %_ZNSt8functionIFN8facebook3jsi5ValueERNS1_7RuntimeERKS2_PS5_mEEC2EOS9_.exit
  %6 = landingpad { ptr, i32 }
          cleanup
  %_M_manager.i.i4 = getelementptr inbounds i8, ptr %agg.tmp, i64 16
  %7 = load ptr, ptr %_M_manager.i.i4, align 8
  %tobool.not.i.i5 = icmp eq ptr %7, null
  br i1 %tobool.not.i.i5, label %_ZNSt8functionIFN8facebook3jsi5ValueERNS1_7RuntimeERKS2_PS5_mEED2Ev.exit9, label %if.then.i.i6

if.then.i.i6:                                     ; preds = %lpad
  %call.i.i7 = invoke noundef zeroext i1 %7(ptr noundef nonnull align 8 dereferenceable(16) %agg.tmp, ptr noundef nonnull align 8 dereferenceable(16) %agg.tmp, i32 noundef 3)
          to label %_ZNSt8functionIFN8facebook3jsi5ValueERNS1_7RuntimeERKS2_PS5_mEED2Ev.exit9 unwind label %terminate.lpad.i.i8

terminate.lpad.i.i8:                              ; preds = %if.then.i.i6
  %8 = landingpad { ptr, i32 }
          catch ptr null
  %9 = extractvalue { ptr, i32 } %8, 0
  call void @__clang_call_terminate(ptr %9) #42
  unreachable

_ZNSt8functionIFN8facebook3jsi5ValueERNS1_7RuntimeERKS2_PS5_mEED2Ev.exit9: ; preds = %lpad, %if.then.i.i6
  %call1.i.i.i.i.i.i10 = call noundef i32 @pthread_mutex_unlock(ptr noundef nonnull %0) #37
  resume { ptr, i32 } %6
}